#include <math.h>
#include <stdio.h>
#include <stdlib.h>
#include <string.h>

int s[8][8];
int main()
{
    int n,N,i,j,a,b,c;
	int min=100;
	int max=0;
    scanf("%d,%d",&n,&N);
	for(i=0;i<n;i++)
	{
		for(j=0;j<N;j++)
		{
			scanf("%d",&s[i][j]);
		}
	}
    for(i=0;i<n-1;i++)
	{
		for(j=0;j<N;j++)
		{
			if(s[i][j]>max)
			{
				max=s[i][j];
				a=i;
				b=j;
			}
		}
		for(c=0;c<n;c++)
		{
			if(s[c][b]<min) 
			{
				min=s[c][b];
			}
		}
			if(min==max){
				printf("%d+%d",a,b);
				return 0;
		}
	}
	printf("No");
	return 0;
}
			
